; Function Attrs: nofree norecurse nosync nounwind memory(argmem: readwrite) uwtable
define internal void @pred4x4_vertical_add_14_c(ptr noundef captures(none) %0, ptr noundef captures(none) %1, i64 noundef %2) #3 {
  %4 = ashr i64 %2, 1
  %5 = sub nsw i64 0, %4
  %6 = getelementptr inbounds i16, ptr %0, i64 %5
  %7 = and i64 %2, -2
  %.idx = mul nsw i64 %4, 6
  %.idx28 = shl nsw i64 %4, 3
  br label %8

8:                                                ; preds = %3, %8
  %.031 = phi ptr [ %1, %3 ], [ %30, %8 ]
  %.02630 = phi ptr [ %6, %3 ], [ %29, %8 ]
  %.02729 = phi i32 [ 0, %3 ], [ %31, %8 ]
  %9 = load i16, ptr %.02630, align 2, !tbaa !9
  %10 = load i32, ptr %.031, align 4, !tbaa !56
  %11 = trunc i32 %10 to i16
  %12 = add i16 %9, %11
  %13 = getelementptr inbounds i16, ptr %.02630, i64 %4
  store i16 %12, ptr %13, align 2, !tbaa !9
  %14 = getelementptr inbounds nuw i8, ptr %.031, i64 16
  %15 = load i32, ptr %14, align 4, !tbaa !56
  %16 = trunc i32 %15 to i16
  %17 = add i16 %12, %16
  %18 = getelementptr inbounds i16, ptr %.02630, i64 %7
  store i16 %17, ptr %18, align 2, !tbaa !9
  %19 = getelementptr inbounds nuw i8, ptr %.031, i64 32
  %20 = load i32, ptr %19, align 4, !tbaa !56
  %21 = trunc i32 %20 to i16
  %22 = add i16 %17, %21
  %23 = getelementptr inbounds i8, ptr %.02630, i64 %.idx
  store i16 %22, ptr %23, align 2, !tbaa !9
  %24 = getelementptr inbounds nuw i8, ptr %.031, i64 48
  %25 = load i32, ptr %24, align 4, !tbaa !56
  %26 = trunc i32 %25 to i16
  %27 = add i16 %22, %26
  %28 = getelementptr inbounds i8, ptr %.02630, i64 %.idx28
  store i16 %27, ptr %28, align 2, !tbaa !9
  %29 = getelementptr inbounds nuw i8, ptr %.02630, i64 2
  %30 = getelementptr inbounds nuw i8, ptr %.031, i64 4
  %31 = add nuw nsw i32 %.02729, 1
  %exitcond.not = icmp eq i32 %31, 4
  br i1 %exitcond.not, label %32, label %8, !llvm.loop !232

32:                                               ; preds = %8
  tail call void @llvm.memset.p0.i64(ptr noundef nonnull align 2 dereferenceable(64) %1, i8 0, i64 64, i1 false)
  ret void
}